target datalayout = "e-m:e-p270:32:32-p271:32:32-p272:64:64-i64:64-i128:128-f80:128-n8:16:32:64-S128"
target triple = "x86_64-pc-linux-gnu"

%"class.YAML::GraphBuilderAdapter" = type { %"class.YAML::EventHandler", ptr, %"class.std::stack", %"class.YAML::AnchorDict", ptr, ptr }
%"class.YAML::EventHandler" = type { ptr }
%"class.std::stack" = type { %"class.std::deque" }
%"class.std::deque" = type { %"class.std::_Deque_base" }
%"class.std::_Deque_base" = type { %"struct.std::_Deque_base<YAML::GraphBuilderAdapter::ContainerFrame, std::allocator<YAML::GraphBuilderAdapter::ContainerFrame>>::_Deque_impl" }
%"struct.std::_Deque_base<YAML::GraphBuilderAdapter::ContainerFrame, std::allocator<YAML::GraphBuilderAdapter::ContainerFrame>>::_Deque_impl" = type { %"struct.std::_Deque_base<YAML::GraphBuilderAdapter::ContainerFrame, std::allocator<YAML::GraphBuilderAdapter::ContainerFrame>>::_Deque_impl_data" }
%"struct.std::_Deque_base<YAML::GraphBuilderAdapter::ContainerFrame, std::allocator<YAML::GraphBuilderAdapter::ContainerFrame>>::_Deque_impl_data" = type { ptr, i64, %"struct.std::_Deque_iterator", %"struct.std::_Deque_iterator" }
%"struct.std::_Deque_iterator" = type { ptr, ptr, ptr, ptr }
%"class.YAML::AnchorDict" = type { %"class.std::vector" }
%"class.std::vector" = type { %"struct.std::_Vector_base" }
%"struct.std::_Vector_base" = type { %"struct.std::_Vector_base<void *, std::allocator<void *>>::_Vector_impl" }
%"struct.std::_Vector_base<void *, std::allocator<void *>>::_Vector_impl" = type { %"struct.std::_Vector_base<void *, std::allocator<void *>>::_Vector_impl_data" }
%"struct.std::_Vector_base<void *, std::allocator<void *>>::_Vector_impl_data" = type { ptr, ptr, ptr }
%"struct.YAML::GraphBuilderAdapter::ContainerFrame" = type { ptr, ptr }
%"struct.std::_Deque_iterator.9" = type { ptr, ptr, ptr, ptr }

; Function Attrs: inlinehint mustprogress nounwind uwtable
define linkonce_odr noundef i64 @_ZSt16__deque_buf_sizem(i64 noundef %0) #3 comdat {
  %2 = alloca i64, align 8
  store i64 %0, ptr %2, align 8, !tbaa !10
  %3 = load i64, ptr %2, align 8, !tbaa !10
  %4 = icmp ult i64 %3, 512
  br i1 %4, label %5, label %8

5:                                                ; preds = %1
  %6 = load i64, ptr %2, align 8, !tbaa !10
  %7 = udiv i64 512, %6
  br label %9

8:                                                ; preds = %1
  br label %9

9:                                                ; preds = %8, %5
  %10 = phi i64 [ %7, %5 ], [ 1, %8 ]
  ret i64 %10
}

; Function Attrs: mustprogress nounwind uwtable
define linkonce_odr noundef i64 @_ZNSt15_Deque_iteratorIN4YAML19GraphBuilderAdapter14ContainerFrameERKS2_PS3_E14_S_buffer_sizeEv() #2 comdat align 2 {
  %1 = call noundef i64 @_ZSt16__deque_buf_sizem(i64 noundef 16)
  ret i64 %1
}

; Function Attrs: mustprogress nounwind uwtable
define linkonce_odr void @_ZNSt15_Deque_iteratorIN4YAML19GraphBuilderAdapter14ContainerFrameERKS2_PS3_E11_M_set_nodeEPPS2_(ptr noundef nonnull align 8 dereferenceable(32) %0, ptr noundef %1) #2 comdat align 2 {
  %3 = alloca ptr, align 8
  %4 = alloca ptr, align 8
  store ptr %0, ptr %3, align 8, !tbaa !99
  store ptr %1, ptr %4, align 8, !tbaa !77
  %5 = load ptr, ptr %3, align 8
  %6 = load ptr, ptr %4, align 8, !tbaa !77
  %7 = getelementptr inbounds nuw %"struct.std::_Deque_iterator.9", ptr %5, i32 0, i32 3
  store ptr %6, ptr %7, align 8, !tbaa !104
  %8 = load ptr, ptr %4, align 8, !tbaa !77
  %9 = load ptr, ptr %8, align 8, !tbaa !45
  %10 = getelementptr inbounds nuw %"struct.std::_Deque_iterator.9", ptr %5, i32 0, i32 1
  store ptr %9, ptr %10, align 8, !tbaa !103
  %11 = getelementptr inbounds nuw %"struct.std::_Deque_iterator.9", ptr %5, i32 0, i32 1
  %12 = load ptr, ptr %11, align 8, !tbaa !103
  %13 = call noundef i64 @_ZNSt15_Deque_iteratorIN4YAML19GraphBuilderAdapter14ContainerFrameERKS2_PS3_E14_S_buffer_sizeEv() #11
  %14 = getelementptr inbounds %"struct.YAML::GraphBuilderAdapter::ContainerFrame", ptr %12, i64 %13
  %15 = getelementptr inbounds nuw %"struct.std::_Deque_iterator.9", ptr %5, i32 0, i32 2
  store ptr %14, ptr %15, align 8, !tbaa !105
  ret void
}

; Function Attrs: mustprogress nounwind uwtable
define linkonce_odr void @_ZNSt15_Deque_iteratorIN4YAML19GraphBuilderAdapter14ContainerFrameERKS2_PS3_EC2IS_IS2_RS2_PS2_EvEERKT_(ptr noundef nonnull align 8 dereferenceable(32) %0, ptr noundef nonnull align 8 dereferenceable(32) %1) unnamed_addr #2 comdat align 2 {
  %3 = alloca ptr, align 8
  %4 = alloca ptr, align 8
  store ptr %0, ptr %3, align 8, !tbaa !99
  store ptr %1, ptr %4, align 8, !tbaa !63
  %5 = load ptr, ptr %3, align 8
  %6 = getelementptr inbounds nuw %"struct.std::_Deque_iterator.9", ptr %5, i32 0, i32 0
  %7 = load ptr, ptr %4, align 8, !tbaa !63
  %8 = getelementptr inbounds nuw %"struct.std::_Deque_iterator", ptr %7, i32 0, i32 0
  %9 = load ptr, ptr %8, align 8, !tbaa !73
  store ptr %9, ptr %6, align 8, !tbaa !101
  %10 = getelementptr inbounds nuw %"struct.std::_Deque_iterator.9", ptr %5, i32 0, i32 1
  %11 = load ptr, ptr %4, align 8, !tbaa !63
  %12 = getelementptr inbounds nuw %"struct.std::_Deque_iterator", ptr %11, i32 0, i32 1
  %13 = load ptr, ptr %12, align 8, !tbaa !74
  store ptr %13, ptr %10, align 8, !tbaa !103
  %14 = getelementptr inbounds nuw %"struct.std::_Deque_iterator.9", ptr %5, i32 0, i32 2
  %15 = load ptr, ptr %4, align 8, !tbaa !63
  %16 = getelementptr inbounds nuw %"struct.std::_Deque_iterator", ptr %15, i32 0, i32 2
  %17 = load ptr, ptr %16, align 8, !tbaa !75
  store ptr %17, ptr %14, align 8, !tbaa !105
  %18 = getelementptr inbounds nuw %"struct.std::_Deque_iterator.9", ptr %5, i32 0, i32 3
  %19 = load ptr, ptr %4, align 8, !tbaa !63
  %20 = getelementptr inbounds nuw %"struct.std::_Deque_iterator", ptr %19, i32 0, i32 3
  %21 = load ptr, ptr %20, align 8, !tbaa !76
  store ptr %21, ptr %18, align 8, !tbaa !104
  ret void
}

; Function Attrs: mustprogress nounwind uwtable
define linkonce_odr noundef nonnull align 8 dereferenceable(16) ptr @_ZNKSt15_Deque_iteratorIN4YAML19GraphBuilderAdapter14ContainerFrameERKS2_PS3_EdeEv(ptr noundef nonnull align 8 dereferenceable(32) %0) #2 comdat align 2 {
  %2 = alloca ptr, align 8
  store ptr %0, ptr %2, align 8, !tbaa !99
  %3 = load ptr, ptr %2, align 8
  %4 = getelementptr inbounds nuw %"struct.std::_Deque_iterator.9", ptr %3, i32 0, i32 0
  %5 = load ptr, ptr %4, align 8, !tbaa !101
  ret ptr %5
}

; Function Attrs: mustprogress nounwind uwtable
define linkonce_odr noundef nonnull align 8 dereferenceable(32) ptr @_ZNSt15_Deque_iteratorIN4YAML19GraphBuilderAdapter14ContainerFrameERKS2_PS3_EmmEv(ptr noundef nonnull align 8 dereferenceable(32) %0) #2 comdat align 2 {
  %2 = alloca ptr, align 8
  store ptr %0, ptr %2, align 8, !tbaa !99
  %3 = load ptr, ptr %2, align 8
  %4 = getelementptr inbounds nuw %"struct.std::_Deque_iterator.9", ptr %3, i32 0, i32 0
  %5 = load ptr, ptr %4, align 8, !tbaa !101
  %6 = getelementptr inbounds nuw %"struct.std::_Deque_iterator.9", ptr %3, i32 0, i32 1
  %7 = load ptr, ptr %6, align 8, !tbaa !103
  %8 = icmp eq ptr %5, %7
  br i1 %8, label %9, label %16

9:                                                ; preds = %1
  %10 = getelementptr inbounds nuw %"struct.std::_Deque_iterator.9", ptr %3, i32 0, i32 3
  %11 = load ptr, ptr %10, align 8, !tbaa !104
  %12 = getelementptr inbounds ptr, ptr %11, i64 -1
  call void @_ZNSt15_Deque_iteratorIN4YAML19GraphBuilderAdapter14ContainerFrameERKS2_PS3_E11_M_set_nodeEPPS2_(ptr noundef nonnull align 8 dereferenceable(32) %3, ptr noundef %12) #11
  %13 = getelementptr inbounds nuw %"struct.std::_Deque_iterator.9", ptr %3, i32 0, i32 2
  %14 = load ptr, ptr %13, align 8, !tbaa !105
  %15 = getelementptr inbounds nuw %"struct.std::_Deque_iterator.9", ptr %3, i32 0, i32 0
  store ptr %14, ptr %15, align 8, !tbaa !101
  br label %16

16:                                               ; preds = %9, %1
  %17 = getelementptr inbounds nuw %"struct.std::_Deque_iterator.9", ptr %3, i32 0, i32 0
  %18 = load ptr, ptr %17, align 8, !tbaa !101
  %19 = getelementptr inbounds %"struct.YAML::GraphBuilderAdapter::ContainerFrame", ptr %18, i32 -1
  store ptr %19, ptr %17, align 8, !tbaa !101
  ret ptr %3
}

; Function Attrs: mustprogress nounwind uwtable
define linkonce_odr void @_ZNKSt5dequeIN4YAML19GraphBuilderAdapter14ContainerFrameESaIS2_EE3endEv(ptr dead_on_unwind noalias writable sret(%"struct.std::_Deque_iterator.9") align 8 %0, ptr noundef nonnull align 8 dereferenceable(80) %1) #2 comdat align 2 {
  %3 = alloca ptr, align 8
  %4 = alloca ptr, align 8
  store ptr %0, ptr %3, align 8
  store ptr %1, ptr %4, align 8, !tbaa !61
  %5 = load ptr, ptr %4, align 8
  %6 = getelementptr inbounds nuw %"class.std::_Deque_base", ptr %5, i32 0, i32 0
  %7 = getelementptr inbounds nuw %"struct.std::_Deque_base<YAML::GraphBuilderAdapter::ContainerFrame, std::allocator<YAML::GraphBuilderAdapter::ContainerFrame>>::_Deque_impl_data", ptr %6, i32 0, i32 3
  call void @_ZNSt15_Deque_iteratorIN4YAML19GraphBuilderAdapter14ContainerFrameERKS2_PS3_EC2IS_IS2_RS2_PS2_EvEERKT_(ptr noundef nonnull align 8 dereferenceable(32) %0, ptr noundef nonnull align 8 dereferenceable(32) %7) #11
  ret void
}

; Function Attrs: mustprogress nounwind uwtable
define linkonce_odr noundef zeroext i1 @_ZSteqRKSt15_Deque_iteratorIN4YAML19GraphBuilderAdapter14ContainerFrameERS2_PS2_ES7_(ptr noundef nonnull align 8 dereferenceable(32) %0, ptr noundef nonnull align 8 dereferenceable(32) %1) #2 comdat {
  %3 = alloca ptr, align 8
  %4 = alloca ptr, align 8
  store ptr %0, ptr %3, align 8, !tbaa !63
  store ptr %1, ptr %4, align 8, !tbaa !63
  %5 = load ptr, ptr %3, align 8, !tbaa !63
  %6 = getelementptr inbounds nuw %"struct.std::_Deque_iterator", ptr %5, i32 0, i32 0
  %7 = load ptr, ptr %6, align 8, !tbaa !73
  %8 = load ptr, ptr %4, align 8, !tbaa !63
  %9 = getelementptr inbounds nuw %"struct.std::_Deque_iterator", ptr %8, i32 0, i32 0
  %10 = load ptr, ptr %9, align 8, !tbaa !73
  %11 = icmp eq ptr %7, %10
  ret i1 %11
}

; Function Attrs: mustprogress nounwind uwtable
define linkonce_odr noundef nonnull align 8 dereferenceable(16) ptr @_ZNKSt5dequeIN4YAML19GraphBuilderAdapter14ContainerFrameESaIS2_EE4backEv(ptr noundef nonnull align 8 dereferenceable(80) %0) #2 comdat align 2 {
  %2 = alloca ptr, align 8
  %3 = alloca %"struct.std::_Deque_iterator.9", align 8
  store ptr %0, ptr %2, align 8, !tbaa !61
  %4 = load ptr, ptr %2, align 8
  call void @llvm.lifetime.start.p0(i64 32, ptr %3) #11
  call void @_ZNKSt5dequeIN4YAML19GraphBuilderAdapter14ContainerFrameESaIS2_EE3endEv(ptr dead_on_unwind writable sret(%"struct.std::_Deque_iterator.9") align 8 %3, ptr noundef nonnull align 8 dereferenceable(80) %4) #11
  %5 = call noundef nonnull align 8 dereferenceable(32) ptr @_ZNSt15_Deque_iteratorIN4YAML19GraphBuilderAdapter14ContainerFrameERKS2_PS3_EmmEv(ptr noundef nonnull align 8 dereferenceable(32) %3) #11
  %6 = call noundef nonnull align 8 dereferenceable(16) ptr @_ZNKSt15_Deque_iteratorIN4YAML19GraphBuilderAdapter14ContainerFrameERKS2_PS3_EdeEv(ptr noundef nonnull align 8 dereferenceable(32) %3) #11
  call void @llvm.lifetime.end.p0(i64 32, ptr %3) #11
  ret ptr %6
}

; Function Attrs: mustprogress nounwind uwtable
define linkonce_odr noundef zeroext i1 @_ZNKSt5dequeIN4YAML19GraphBuilderAdapter14ContainerFrameESaIS2_EE5emptyEv(ptr noundef nonnull align 8 dereferenceable(80) %0) #2 comdat align 2 {
  %2 = alloca ptr, align 8
  store ptr %0, ptr %2, align 8, !tbaa !61
  %3 = load ptr, ptr %2, align 8
  %4 = getelementptr inbounds nuw %"class.std::_Deque_base", ptr %3, i32 0, i32 0
  %5 = getelementptr inbounds nuw %"struct.std::_Deque_base<YAML::GraphBuilderAdapter::ContainerFrame, std::allocator<YAML::GraphBuilderAdapter::ContainerFrame>>::_Deque_impl_data", ptr %4, i32 0, i32 3
  %6 = getelementptr inbounds nuw %"class.std::_Deque_base", ptr %3, i32 0, i32 0
  %7 = getelementptr inbounds nuw %"struct.std::_Deque_base<YAML::GraphBuilderAdapter::ContainerFrame, std::allocator<YAML::GraphBuilderAdapter::ContainerFrame>>::_Deque_impl_data", ptr %6, i32 0, i32 2
  %8 = call noundef zeroext i1 @_ZSteqRKSt15_Deque_iteratorIN4YAML19GraphBuilderAdapter14ContainerFrameERS2_PS2_ES7_(ptr noundef nonnull align 8 dereferenceable(32) %5, ptr noundef nonnull align 8 dereferenceable(32) %7) #11
  ret i1 %8
}

; Function Attrs: mustprogress nounwind uwtable
define linkonce_odr noundef nonnull align 8 dereferenceable(16) ptr @_ZNKSt5stackIN4YAML19GraphBuilderAdapter14ContainerFrameESt5dequeIS2_SaIS2_EEE3topEv(ptr noundef nonnull align 8 dereferenceable(80) %0) #2 comdat align 2 {
  %2 = alloca ptr, align 8
  store ptr %0, ptr %2, align 8, !tbaa !43
  %3 = load ptr, ptr %2, align 8
  %4 = getelementptr inbounds nuw %"class.std::stack", ptr %3, i32 0, i32 0
  %5 = call noundef nonnull align 8 dereferenceable(16) ptr @_ZNKSt5dequeIN4YAML19GraphBuilderAdapter14ContainerFrameESaIS2_EE4backEv(ptr noundef nonnull align 8 dereferenceable(80) %4) #11
  ret ptr %5
}

; Function Attrs: mustprogress nounwind uwtable
define linkonce_odr noundef zeroext i1 @_ZNKSt5stackIN4YAML19GraphBuilderAdapter14ContainerFrameESt5dequeIS2_SaIS2_EEE5emptyEv(ptr noundef nonnull align 8 dereferenceable(80) %0) #2 comdat align 2 {
  %2 = alloca ptr, align 8
  store ptr %0, ptr %2, align 8, !tbaa !43
  %3 = load ptr, ptr %2, align 8
  %4 = getelementptr inbounds nuw %"class.std::stack", ptr %3, i32 0, i32 0
  %5 = call noundef zeroext i1 @_ZNKSt5dequeIN4YAML19GraphBuilderAdapter14ContainerFrameESaIS2_EE5emptyEv(ptr noundef nonnull align 8 dereferenceable(80) %4) #11
  ret i1 %5
}

; Function Attrs: mustprogress uwtable
define noundef ptr @_ZNK4YAML19GraphBuilderAdapter16GetCurrentParentEv(ptr noundef nonnull align 8 dereferenceable(136) %0) #0 align 2 {
  %2 = alloca ptr, align 8
  %3 = alloca ptr, align 8
  store ptr %0, ptr %3, align 8, !tbaa !3
  %4 = load ptr, ptr %3, align 8
  %5 = getelementptr inbounds nuw %"class.YAML::GraphBuilderAdapter", ptr %4, i32 0, i32 2
  %6 = call noundef zeroext i1 @_ZNKSt5stackIN4YAML19GraphBuilderAdapter14ContainerFrameESt5dequeIS2_SaIS2_EEE5emptyEv(ptr noundef nonnull align 8 dereferenceable(80) %5)
  br i1 %6, label %7, label %8

7:                                                ; preds = %1
  store ptr null, ptr %2, align 8
  br label %13

8:                                                ; preds = %1
  %9 = getelementptr inbounds nuw %"class.YAML::GraphBuilderAdapter", ptr %4, i32 0, i32 2
  %10 = call noundef nonnull align 8 dereferenceable(16) ptr @_ZNKSt5stackIN4YAML19GraphBuilderAdapter14ContainerFrameESt5dequeIS2_SaIS2_EEE3topEv(ptr noundef nonnull align 8 dereferenceable(80) %9)
  %11 = getelementptr inbounds nuw %"struct.YAML::GraphBuilderAdapter::ContainerFrame", ptr %10, i32 0, i32 0
  %12 = load ptr, ptr %11, align 8, !tbaa !33
  store ptr %12, ptr %2, align 8
  br label %13

13:                                               ; preds = %8, %7
  %14 = load ptr, ptr %2, align 8
  ret ptr %14
}